target datalayout = "e-m:e-p270:32:32-p271:32:32-p272:64:64-i64:64-i128:128-f80:128-n8:16:32:64-S128"
target triple = "x86_64-pc-linux-gnu"

%class.LIR_Opr = type { i64 }
%class.PhiResolverState = type { %class.GrowableArray, %class.GrowableArray, %class.GrowableArray }
%class.GrowableArray = type { %class.GrowableArrayWithAllocator, %class.GrowableArrayMetadata }
%class.GrowableArrayWithAllocator = type { %class.GrowableArrayView }
%class.GrowableArrayView = type { %class.GrowableArrayBase, ptr }
%class.GrowableArrayBase = type { i32, i32 }
%class.GrowableArrayMetadata = type { i64 }
%class.LIRGenerator = type { %class.InstructionVisitor, %class.BlockClosure, ptr, ptr, %class.PhiResolverState, ptr, i32, %class.BitMap2D, ptr, %class.GrowableArray.0, %class.GrowableArray.3, %class.GrowableArray.6, ptr }
%class.InstructionVisitor = type { ptr }
%class.BlockClosure = type { ptr }
%class.BitMap2D = type { %class.ResourceBitMap, i64 }
%class.ResourceBitMap = type { %class.GrowableBitMap }
%class.GrowableBitMap = type { %class.BitMap }
%class.BitMap = type { ptr, i64 }
%class.GrowableArray.0 = type { %class.GrowableArrayWithAllocator.1, %class.GrowableArrayMetadata }
%class.GrowableArrayWithAllocator.1 = type { %class.GrowableArrayView.2 }
%class.GrowableArrayView.2 = type { %class.GrowableArrayBase, ptr }
%class.GrowableArray.3 = type { %class.GrowableArrayWithAllocator.4, %class.GrowableArrayMetadata }
%class.GrowableArrayWithAllocator.4 = type { %class.GrowableArrayView.5 }
%class.GrowableArrayView.5 = type { %class.GrowableArrayBase, ptr }
%class.GrowableArray.6 = type { %class.GrowableArrayWithAllocator.7, %class.GrowableArrayMetadata }
%class.GrowableArrayWithAllocator.7 = type { %class.GrowableArrayView.8 }
%class.GrowableArrayView.8 = type { %class.GrowableArrayBase, ptr }

@g_assert_poison = external global ptr, align 8
@.str.4 = private unnamed_addr constant [41 x i8] c"src/hotspot/share/c1/c1_LIRGenerator.cpp\00", align 1

; Function Attrs: mustprogress nounwind uwtable
define linkonce_odr hidden noundef ptr @_ZNK12LIRGenerator3lirEv(ptr noundef nonnull align 8 dereferenceable(232) %0) #1 comdat align 2 {
  %2 = alloca ptr, align 8
  store ptr %0, ptr %2, align 8
  %3 = load ptr, ptr %2, align 8
  %4 = getelementptr inbounds %class.LIRGenerator, ptr %3, i32 0, i32 8
  %5 = load ptr, ptr %4, align 8
  ret ptr %5
}

; Function Attrs: mustprogress nounwind uwtable
define linkonce_odr hidden noundef ptr @_ZN12LIRGenerator3genEv(ptr noundef nonnull align 8 dereferenceable(232) %0) #1 comdat align 2 {
  %2 = alloca ptr, align 8
  store ptr %0, ptr %2, align 8
  %3 = load ptr, ptr %2, align 8
  ret ptr %3
}

; Function Attrs: mustprogress nounwind uwtable
define linkonce_odr hidden noundef zeroext i1 @_ZNK7LIR_OprneERKS_(ptr noundef nonnull align 8 dereferenceable(8) %0, ptr noundef nonnull align 8 dereferenceable(8) %1) #1 comdat align 2 {
  %3 = alloca ptr, align 8
  %4 = alloca ptr, align 8
  store ptr %0, ptr %3, align 8
  store ptr %1, ptr %4, align 8
  %5 = load ptr, ptr %3, align 8
  %6 = getelementptr inbounds %class.LIR_Opr, ptr %5, i32 0, i32 0
  %7 = load i64, ptr %6, align 8
  %8 = load ptr, ptr %4, align 8
  %9 = getelementptr inbounds %class.LIR_Opr, ptr %8, i32 0, i32 0
  %10 = load i64, ptr %9, align 8
  %11 = icmp ne i64 %7, %10
  ret i1 %11
}

; Function Attrs: mustprogress nounwind uwtable
define hidden void @_ZN12LIRGenerator8logic_opEN9Bytecodes4CodeE7LIR_OprS2_S2_(ptr noundef nonnull align 8 dereferenceable(232) %0, i32 noundef %1, i64 %2, i64 %3, i64 %4) #1 align 2 {
  %6 = alloca %class.LIR_Opr, align 8
  %7 = alloca %class.LIR_Opr, align 8
  %8 = alloca %class.LIR_Opr, align 8
  %9 = alloca ptr, align 8
  %10 = alloca i32, align 4
  %11 = alloca %class.LIR_Opr, align 8
  %12 = alloca %class.LIR_Opr, align 8
  %13 = alloca %class.LIR_Opr, align 8
  %14 = alloca %class.LIR_Opr, align 8
  %15 = alloca %class.LIR_Opr, align 8
  %16 = alloca %class.LIR_Opr, align 8
  %17 = alloca %class.LIR_Opr, align 8
  %18 = alloca %class.LIR_Opr, align 8
  %19 = alloca %class.LIR_Opr, align 8
  %20 = alloca %class.LIR_Opr, align 8
  %21 = alloca %class.LIR_Opr, align 8
  %22 = getelementptr inbounds %class.LIR_Opr, ptr %6, i32 0, i32 0
  store i64 %2, ptr %22, align 8
  %23 = getelementptr inbounds %class.LIR_Opr, ptr %7, i32 0, i32 0
  store i64 %3, ptr %23, align 8
  %24 = getelementptr inbounds %class.LIR_Opr, ptr %8, i32 0, i32 0
  store i64 %4, ptr %24, align 8
  store ptr %0, ptr %9, align 8
  store i32 %1, ptr %10, align 4
  %25 = load ptr, ptr %9, align 8
  %26 = call noundef zeroext i1 @_ZNK7LIR_OprneERKS_(ptr noundef nonnull align 8 dereferenceable(8) %7, ptr noundef nonnull align 8 dereferenceable(8) %6)
  br i1 %26, label %27, label %34

27:                                               ; preds = %5
  %28 = call noundef ptr @_ZN12LIRGenerator3genEv(ptr noundef nonnull align 8 dereferenceable(232) %25)
  %29 = call noundef ptr @_ZNK12LIRGenerator3lirEv(ptr noundef nonnull align 8 dereferenceable(232) %28)
  call void @llvm.memcpy.p0.p0.i64(ptr align 8 %11, ptr align 8 %7, i64 8, i1 false)
  call void @llvm.memcpy.p0.p0.i64(ptr align 8 %12, ptr align 8 %6, i64 8, i1 false)
  %30 = getelementptr inbounds %class.LIR_Opr, ptr %11, i32 0, i32 0
  %31 = load i64, ptr %30, align 8
  %32 = getelementptr inbounds %class.LIR_Opr, ptr %12, i32 0, i32 0
  %33 = load i64, ptr %32, align 8
  call void @_ZN8LIR_List4moveE7LIR_OprS0_P12CodeEmitInfo(ptr noundef nonnull align 8 dereferenceable(32) %29, i64 %31, i64 %33, ptr noundef null)
  call void @llvm.memcpy.p0.p0.i64(ptr align 8 %7, ptr align 8 %6, i64 8, i1 false)
  br label %34

34:                                               ; preds = %27, %5
  %35 = load i32, ptr %10, align 4
  switch i32 %35, label %63 [
    i32 126, label %36
    i32 127, label %36
    i32 128, label %45
    i32 129, label %45
    i32 130, label %54
    i32 131, label %54
  ]

36:                                               ; preds = %34, %34
  %37 = call noundef ptr @_ZN12LIRGenerator3genEv(ptr noundef nonnull align 8 dereferenceable(232) %25)
  %38 = call noundef ptr @_ZNK12LIRGenerator3lirEv(ptr noundef nonnull align 8 dereferenceable(232) %37)
  call void @llvm.memcpy.p0.p0.i64(ptr align 8 %13, ptr align 8 %7, i64 8, i1 false)
  call void @llvm.memcpy.p0.p0.i64(ptr align 8 %14, ptr align 8 %8, i64 8, i1 false)
  call void @llvm.memcpy.p0.p0.i64(ptr align 8 %15, ptr align 8 %6, i64 8, i1 false)
  %39 = getelementptr inbounds %class.LIR_Opr, ptr %13, i32 0, i32 0
  %40 = load i64, ptr %39, align 8
  %41 = getelementptr inbounds %class.LIR_Opr, ptr %14, i32 0, i32 0
  %42 = load i64, ptr %41, align 8
  %43 = getelementptr inbounds %class.LIR_Opr, ptr %15, i32 0, i32 0
  %44 = load i64, ptr %43, align 8
  call void @_ZN8LIR_List11logical_andE7LIR_OprS0_S0_(ptr noundef nonnull align 8 dereferenceable(32) %38, i64 %40, i64 %42, i64 %44)
  br label %67

45:                                               ; preds = %34, %34
  %46 = call noundef ptr @_ZN12LIRGenerator3genEv(ptr noundef nonnull align 8 dereferenceable(232) %25)
  %47 = call noundef ptr @_ZNK12LIRGenerator3lirEv(ptr noundef nonnull align 8 dereferenceable(232) %46)
  call void @llvm.memcpy.p0.p0.i64(ptr align 8 %16, ptr align 8 %7, i64 8, i1 false)
  call void @llvm.memcpy.p0.p0.i64(ptr align 8 %17, ptr align 8 %8, i64 8, i1 false)
  call void @llvm.memcpy.p0.p0.i64(ptr align 8 %18, ptr align 8 %6, i64 8, i1 false)
  %48 = getelementptr inbounds %class.LIR_Opr, ptr %16, i32 0, i32 0
  %49 = load i64, ptr %48, align 8
  %50 = getelementptr inbounds %class.LIR_Opr, ptr %17, i32 0, i32 0
  %51 = load i64, ptr %50, align 8
  %52 = getelementptr inbounds %class.LIR_Opr, ptr %18, i32 0, i32 0
  %53 = load i64, ptr %52, align 8
  call void @_ZN8LIR_List10logical_orE7LIR_OprS0_S0_(ptr noundef nonnull align 8 dereferenceable(32) %47, i64 %49, i64 %51, i64 %53)
  br label %67

54:                                               ; preds = %34, %34
  %55 = call noundef ptr @_ZN12LIRGenerator3genEv(ptr noundef nonnull align 8 dereferenceable(232) %25)
  %56 = call noundef ptr @_ZNK12LIRGenerator3lirEv(ptr noundef nonnull align 8 dereferenceable(232) %55)
  call void @llvm.memcpy.p0.p0.i64(ptr align 8 %19, ptr align 8 %7, i64 8, i1 false)
  call void @llvm.memcpy.p0.p0.i64(ptr align 8 %20, ptr align 8 %8, i64 8, i1 false)
  call void @llvm.memcpy.p0.p0.i64(ptr align 8 %21, ptr align 8 %6, i64 8, i1 false)
  %57 = getelementptr inbounds %class.LIR_Opr, ptr %19, i32 0, i32 0
  %58 = load i64, ptr %57, align 8
  %59 = getelementptr inbounds %class.LIR_Opr, ptr %20, i32 0, i32 0
  %60 = load i64, ptr %59, align 8
  %61 = getelementptr inbounds %class.LIR_Opr, ptr %21, i32 0, i32 0
  %62 = load i64, ptr %61, align 8
  call void @_ZN8LIR_List11logical_xorE7LIR_OprS0_S0_(ptr noundef nonnull align 8 dereferenceable(32) %56, i64 %58, i64 %60, i64 %62)
  br label %67

63:                                               ; preds = %34
  br label %64

64:                                               ; preds = %63
  %65 = load ptr, ptr @g_assert_poison, align 8
  store i8 88, ptr %65, align 1
  call void @_Z28report_should_not_reach_herePKci(ptr noundef @.str.4, i32 noundef 621) #7
  unreachable

66:                                               ; No predecessors!
  br label %67

67:                                               ; preds = %66, %54, %45, %36
  ret void
}