; Function Attrs: mustprogress nounwind uwtable
define hidden void @_ZN12LIRGenerator8logic_opEN9Bytecodes4CodeE7LIR_OprS2_S2_(ptr nocapture noundef nonnull readonly align 8 dereferenceable(232) %0, i32 noundef %1, i64 %2, i64 %3, i64 %4) local_unnamed_addr #3 align 2 {
  %.not = icmp eq i64 %3, %2
  br i1 %.not, label %9, label %6

6:                                                ; preds = %5
  %7 = getelementptr inbounds i8, ptr %0, i64 144
  %8 = load ptr, ptr %7, align 8
  tail call void @_ZN8LIR_List4moveE7LIR_OprS0_P12CodeEmitInfo(ptr noundef nonnull align 8 dereferenceable(32) %8, i64 %3, i64 %2, ptr noundef null)
  br label %9

9:                                                ; preds = %6, %5
  %.sroa.0.0 = phi i64 [ %2, %6 ], [ %3, %5 ]
  switch i32 %1, label %19 [
    i32 126, label %10
    i32 127, label %10
    i32 128, label %13
    i32 129, label %13
    i32 130, label %16
    i32 131, label %16
  ]

10:                                               ; preds = %9, %9
  %11 = getelementptr inbounds i8, ptr %0, i64 144
  %12 = load ptr, ptr %11, align 8
  tail call void @_ZN8LIR_List11logical_andE7LIR_OprS0_S0_(ptr noundef nonnull align 8 dereferenceable(32) %12, i64 %.sroa.0.0, i64 %4, i64 %2)
  br label %21

13:                                               ; preds = %9, %9
  %14 = getelementptr inbounds i8, ptr %0, i64 144
  %15 = load ptr, ptr %14, align 8
  tail call void @_ZN8LIR_List10logical_orE7LIR_OprS0_S0_(ptr noundef nonnull align 8 dereferenceable(32) %15, i64 %.sroa.0.0, i64 %4, i64 %2)
  br label %21

16:                                               ; preds = %9, %9
  %17 = getelementptr inbounds i8, ptr %0, i64 144
  %18 = load ptr, ptr %17, align 8
  tail call void @_ZN8LIR_List11logical_xorE7LIR_OprS0_S0_(ptr noundef nonnull align 8 dereferenceable(32) %18, i64 %.sroa.0.0, i64 %4, i64 %2)
  br label %21

19:                                               ; preds = %9
  %20 = load ptr, ptr @g_assert_poison, align 8
  store i8 88, ptr %20, align 1
  tail call void @_Z28report_should_not_reach_herePKci(ptr noundef nonnull @.str.4, i32 noundef 621) #18
  unreachable

21:                                               ; preds = %16, %13, %10
  ret void
}